; Function Attrs: mustprogress nounwind uwtable
define internal fastcc void @_ZNSt10unique_ptrIZN9grpc_core23PromiseTracingFilterForEPK19grpc_channel_filterE13DerivedFilterSt14default_deleteIS4_EED2Ev(ptr nocapture noundef nonnull align 8 dereferenceable(8) %this) unnamed_addr #4 align 2 personality ptr @__gxx_personality_v0 {
entry:
  %0 = load ptr, ptr %this, align 8
  %cmp.not = icmp eq ptr %0, null
  br i1 %cmp.not, label %if.end, label %_ZNKSt14default_deleteIZN9grpc_core23PromiseTracingFilterForEPK19grpc_channel_filterE13DerivedFilterEclEPS4_.exit

_ZNKSt14default_deleteIZN9grpc_core23PromiseTracingFilterForEPK19grpc_channel_filterE13DerivedFilterEclEPS4_.exit: ; preds = %entry
  %name_str.i.i = getelementptr inbounds i8, ptr %0, i64 120
  tail call void @_ZNSt7__cxx1112basic_stringIcSt11char_traitsIcESaIcEED1Ev(ptr noundef nonnull align 8 dereferenceable(32) %name_str.i.i) #31
  tail call void @_ZdlPv(ptr noundef nonnull %0) #32
  br label %if.end

if.end:                                           ; preds = %_ZNKSt14default_deleteIZN9grpc_core23PromiseTracingFilterForEPK19grpc_channel_filterE13DerivedFilterEclEPS4_.exit, %entry
  store ptr null, ptr %this, align 8
  ret void
}